target datalayout = "e-m:e-p270:32:32-p271:32:32-p272:64:64-i64:64-i128:128-f80:128-n8:16:32:64-S128"
target triple = "x86_64-pc-linux-gnu"

%struct.RBasic = type { i64, i64 }
%struct.RData = type { %struct.RBasic, ptr, ptr, ptr }

@ID_callback_state = internal global i64 0, align 8
@ossl_ssl_ex_ptr_idx = internal global i32 0, align 4
@dOSSL = external global i64, align 8
@stderr = external global ptr, align 8
@.str.211 = private unnamed_addr constant [13 x i8] c"OSSL_DEBUG: \00", align 1
@.str.213 = private unnamed_addr constant [10 x i8] c" [%s:%d]\0A\00", align 1
@.str.214 = private unnamed_addr constant [32 x i8] c"../../../ext/openssl/ossl_ssl.c\00", align 1
@cSSLSession = external global i64, align 8
@.str.231 = private unnamed_addr constant [33 x i8] c"SSL SESSION new callback entered\00", align 1

; Function Attrs: inlinehint nounwind sspstrong willreturn memory(none) uwtable
define internal i64 @RB_INT2FIX(i64 noundef %0) #9 {
  %2 = alloca i64, align 8
  %3 = alloca i64, align 8
  %4 = alloca i64, align 8
  %5 = alloca i64, align 8
  %6 = alloca i64, align 8
  %7 = alloca i64, align 8
  store i64 %0, ptr %2, align 8, !tbaa !14
  call void @llvm.lifetime.start.p0(i64 8, ptr %3) #20
  %8 = load i64, ptr %2, align 8, !tbaa !14
  store i64 %8, ptr %3, align 8, !tbaa !14
  call void @llvm.lifetime.start.p0(i64 8, ptr %4) #20
  %9 = load i64, ptr %3, align 8, !tbaa !14
  %10 = shl i64 %9, 1
  %11 = add i64 %10, 1
  store i64 %11, ptr %4, align 8, !tbaa !14
  call void @llvm.lifetime.start.p0(i64 8, ptr %5) #20
  %12 = load i64, ptr %4, align 8, !tbaa !14
  store i64 %12, ptr %5, align 8, !tbaa !14
  call void @llvm.lifetime.start.p0(i64 8, ptr %6) #20
  %13 = load i64, ptr %5, align 8, !tbaa !14
  store i64 %13, ptr %6, align 8, !tbaa !14
  call void @llvm.lifetime.start.p0(i64 8, ptr %7) #20
  %14 = load i64, ptr %6, align 8, !tbaa !14
  store i64 %14, ptr %7, align 8, !tbaa !14
  %15 = load i64, ptr %7, align 8, !tbaa !14
  call void @llvm.lifetime.end.p0(i64 8, ptr %7) #20
  call void @llvm.lifetime.end.p0(i64 8, ptr %6) #20
  call void @llvm.lifetime.end.p0(i64 8, ptr %5) #20
  call void @llvm.lifetime.end.p0(i64 8, ptr %4) #20
  call void @llvm.lifetime.end.p0(i64 8, ptr %3) #20
  ret i64 %15
}

; Function Attrs: inlinehint nounwind sspstrong uwtable
define internal i64 @rb_int2num_inline(i32 noundef %0) #4 {
  %2 = alloca i64, align 8
  %3 = alloca i32, align 4
  store i32 %0, ptr %3, align 4, !tbaa !12
  %4 = load i32, ptr %3, align 4, !tbaa !12
  %5 = sext i32 %4 to i64
  %6 = icmp slt i64 %5, 4611686018427387904
  br i1 %6, label %7, label %15

7:                                                ; preds = %1
  %8 = load i32, ptr %3, align 4, !tbaa !12
  %9 = sext i32 %8 to i64
  %10 = icmp sge i64 %9, -4611686018427387904
  br i1 %10, label %11, label %15

11:                                               ; preds = %7
  %12 = load i32, ptr %3, align 4, !tbaa !12
  %13 = sext i32 %12 to i64
  %14 = call i64 @RB_INT2FIX(i64 noundef %13) #23
  store i64 %14, ptr %2, align 8
  br label %19

15:                                               ; preds = %7, %1
  %16 = load i32, ptr %3, align 4, !tbaa !12
  %17 = sext i32 %16 to i64
  %18 = call i64 @rb_int2big(i64 noundef %17)
  store i64 %18, ptr %2, align 8
  br label %19

19:                                               ; preds = %15, %11
  %20 = load i64, ptr %2, align 8
  ret i64 %20
}

; Function Attrs: nounwind sspstrong uwtable
define internal i32 @ossl_sslctx_session_new_cb(ptr noundef %0, ptr noundef %1) #0 {
  %3 = alloca ptr, align 8
  %4 = alloca ptr, align 8
  %5 = alloca i64, align 8
  %6 = alloca i64, align 8
  %7 = alloca i64, align 8
  %8 = alloca i32, align 4
  store ptr %0, ptr %3, align 8, !tbaa !10
  store ptr %1, ptr %4, align 8, !tbaa !43
  call void @llvm.lifetime.start.p0(i64 8, ptr %5) #20
  call void @llvm.lifetime.start.p0(i64 8, ptr %6) #20
  call void @llvm.lifetime.start.p0(i64 8, ptr %7) #20
  call void @llvm.lifetime.start.p0(i64 4, ptr %8) #20
  store i32 0, ptr %8, align 4, !tbaa !12
  br label %9

9:                                                ; preds = %2
  %10 = load i64, ptr @dOSSL, align 8, !tbaa !14
  %11 = icmp eq i64 %10, 20
  br i1 %11, label %12, label %19

12:                                               ; preds = %9
  %13 = load ptr, ptr @stderr, align 8, !tbaa !41
  %14 = call i32 (ptr, i32, ptr, ...) @__fprintf_chk(ptr noundef %13, i32 noundef 1, ptr noundef @.str.211)
  %15 = load ptr, ptr @stderr, align 8, !tbaa !41
  %16 = call i32 (ptr, i32, ptr, ...) @__fprintf_chk(ptr noundef %15, i32 noundef 1, ptr noundef @.str.231)
  %17 = load ptr, ptr @stderr, align 8, !tbaa !41
  %18 = call i32 (ptr, i32, ptr, ...) @__fprintf_chk(ptr noundef %17, i32 noundef 1, ptr noundef @.str.213, ptr noundef @.str.214, i32 noundef 303)
  br label %19

19:                                               ; preds = %12, %9
  br label %20

20:                                               ; preds = %19
  br label %21

21:                                               ; preds = %20
  %22 = load ptr, ptr %3, align 8, !tbaa !10
  %23 = load i32, ptr @ossl_ssl_ex_ptr_idx, align 4, !tbaa !12
  %24 = call ptr @SSL_get_ex_data(ptr noundef %22, i32 noundef %23)
  %25 = ptrtoint ptr %24 to i64
  store i64 %25, ptr %6, align 8, !tbaa !14
  %26 = load i64, ptr @cSSLSession, align 8, !tbaa !14
  %27 = call i64 @rb_obj_alloc(i64 noundef %26)
  store i64 %27, ptr %7, align 8, !tbaa !14
  %28 = load ptr, ptr %4, align 8, !tbaa !43
  %29 = call i32 @SSL_SESSION_up_ref(ptr noundef %28)
  %30 = load ptr, ptr %4, align 8, !tbaa !43
  %31 = load i64, ptr %7, align 8, !tbaa !14
  %32 = inttoptr i64 %31 to ptr
  %33 = getelementptr inbounds nuw %struct.RData, ptr %32, i32 0, i32 3
  store ptr %30, ptr %33, align 8, !tbaa !84
  %34 = call i64 @rb_ary_new_capa(i64 noundef 2)
  store i64 %34, ptr %5, align 8, !tbaa !14
  %35 = load i64, ptr %5, align 8, !tbaa !14
  %36 = load i64, ptr %6, align 8, !tbaa !14
  %37 = call i64 @rb_ary_push(i64 noundef %35, i64 noundef %36)
  %38 = load i64, ptr %5, align 8, !tbaa !14
  %39 = load i64, ptr %7, align 8, !tbaa !14
  %40 = call i64 @rb_ary_push(i64 noundef %38, i64 noundef %39)
  %41 = load i64, ptr %5, align 8, !tbaa !14
  %42 = call i64 @rb_protect(ptr noundef @ossl_call_session_new_cb, i64 noundef %41, ptr noundef %8)
  %43 = load i32, ptr %8, align 4, !tbaa !12
  %44 = icmp ne i32 %43, 0
  br i1 %44, label %45, label %51

45:                                               ; preds = %21
  %46 = load i64, ptr %6, align 8, !tbaa !14
  %47 = load i64, ptr @ID_callback_state, align 8, !tbaa !14
  %48 = load i32, ptr %8, align 4, !tbaa !12
  %49 = call i64 @rb_int2num_inline(i32 noundef %48)
  %50 = call i64 @rb_ivar_set(i64 noundef %46, i64 noundef %47, i64 noundef %49)
  br label %51

51:                                               ; preds = %45, %21
  call void @llvm.lifetime.end.p0(i64 4, ptr %8) #20
  call void @llvm.lifetime.end.p0(i64 8, ptr %7) #20
  call void @llvm.lifetime.end.p0(i64 8, ptr %6) #20
  call void @llvm.lifetime.end.p0(i64 8, ptr %5) #20
  ret i32 0
}