; Function Attrs: nounwind sspstrong uwtable
define internal noundef i32 @ossl_sslctx_session_new_cb(ptr noundef %0, ptr noundef %1) #0 {
  %3 = alloca i32, align 4
  call void @llvm.lifetime.start.p0(i64 4, ptr nonnull %3) #9
  store i32 0, ptr %3, align 4, !tbaa !6
  %4 = load i64, ptr @dOSSL, align 8, !tbaa !10
  %5 = icmp eq i64 %4, 20
  br i1 %5, label %6, label %13

6:                                                ; preds = %2
  %7 = load ptr, ptr @stderr, align 8, !tbaa !32
  %8 = tail call i32 (ptr, i32, ptr, ...) @__fprintf_chk(ptr noundef %7, i32 noundef 1, ptr noundef nonnull @.str.211) #9
  %9 = load ptr, ptr @stderr, align 8, !tbaa !32
  %10 = tail call i32 (ptr, i32, ptr, ...) @__fprintf_chk(ptr noundef %9, i32 noundef 1, ptr noundef nonnull @.str.231) #9
  %11 = load ptr, ptr @stderr, align 8, !tbaa !32
  %12 = tail call i32 (ptr, i32, ptr, ...) @__fprintf_chk(ptr noundef %11, i32 noundef 1, ptr noundef nonnull @.str.213, ptr noundef nonnull @.str.214, i32 noundef 303) #9
  br label %13

13:                                               ; preds = %6, %2
  %14 = load i32, ptr @ossl_ssl_ex_ptr_idx, align 4, !tbaa !6
  %15 = tail call ptr @SSL_get_ex_data(ptr noundef %0, i32 noundef %14) #9
  %16 = ptrtoint ptr %15 to i64
  %17 = load i64, ptr @cSSLSession, align 8, !tbaa !10
  %18 = tail call i64 @rb_obj_alloc(i64 noundef %17) #9
  %19 = tail call i32 @SSL_SESSION_up_ref(ptr noundef %1) #9
  %20 = inttoptr i64 %18 to ptr
  %21 = getelementptr inbounds nuw i8, ptr %20, i64 32
  store ptr %1, ptr %21, align 8, !tbaa !87
  %22 = tail call i64 @rb_ary_new_capa(i64 noundef 2) #9
  %23 = tail call i64 @rb_ary_push(i64 noundef %22, i64 noundef %16) #9
  %24 = tail call i64 @rb_ary_push(i64 noundef %22, i64 noundef %18) #9
  %25 = call i64 @rb_protect(ptr noundef nonnull @ossl_call_session_new_cb, i64 noundef %22, ptr noundef nonnull %3) #9
  %26 = load i32, ptr %3, align 4, !tbaa !6
  %.not = icmp eq i32 %26, 0
  br i1 %.not, label %33, label %27

27:                                               ; preds = %13
  %28 = load i64, ptr @ID_callback_state, align 8, !tbaa !10
  %29 = sext i32 %26 to i64
  %30 = shl nsw i64 %29, 1
  %31 = or disjoint i64 %30, 1
  %32 = call i64 @rb_ivar_set(i64 noundef %16, i64 noundef %28, i64 noundef %31) #9
  br label %33

33:                                               ; preds = %27, %13
  call void @llvm.lifetime.end.p0(i64 4, ptr nonnull %3) #9
  ret i32 0
}